target datalayout = "e-m:e-p270:32:32-p271:32:32-p272:64:64-i64:64-i128:128-f80:128-n8:16:32:64-S128"
target triple = "x86_64-pc-linux-gnu"

%struct._lv_svg_draw_dsc = type { ptr, %struct._lv_vector_draw_dsc_t, ptr, ptr }
%struct._lv_vector_draw_dsc_t = type { %struct._lv_vector_fill_dsc_t, %struct._lv_vector_stroke_dsc_t, %struct._lv_matrix_t, i32, %struct.lv_area_t }
%struct._lv_vector_fill_dsc_t = type { i32, %struct.lv_color32_t, i8, i32, %struct._lv_draw_image_dsc_t, %struct._lv_vector_gradient_t, %struct._lv_matrix_t }
%struct.lv_color32_t = type { i8, i8, i8, i8 }
%struct._lv_draw_image_dsc_t = type { %struct.lv_draw_dsc_base_t, ptr, %struct.lv_image_header_t, i32, i32, i32, i32, i32, %struct.lv_point_t, %struct.lv_color_t, i8, i8, i8, ptr, %struct.lv_area_t, i32, ptr }
%struct.lv_draw_dsc_base_t = type { ptr, i32, i32, i32, ptr, i64, ptr }
%struct.lv_image_header_t = type <{ i64, i32 }>
%struct.lv_point_t = type { i32, i32 }
%struct.lv_color_t = type { i8, i8, i8 }
%struct._lv_vector_gradient_t = type { i32, [2 x %struct.lv_gradient_stop_t], i16, float, float, float, float, float, float, float, i32 }
%struct.lv_gradient_stop_t = type { %struct.lv_color_t, i8, i8 }
%struct._lv_vector_stroke_dsc_t = type { i32, %struct.lv_color32_t, i8, float, %struct._lv_array_t, i32, i32, i16, %struct._lv_vector_gradient_t, %struct._lv_matrix_t }
%struct._lv_array_t = type { ptr, i32, i32, i32, i8 }
%struct._lv_matrix_t = type { [3 x [3 x float]] }
%struct.lv_area_t = type { i32, i32, i32, i32 }
%struct._lv_svg_render_obj = type { ptr, i32, ptr, %struct._lv_vector_draw_dsc_t, %struct._lv_matrix_t, ptr, ptr, ptr, ptr, ptr, ptr, ptr, ptr, ptr }
%struct.lv_svg_render_group_t = type { %struct._lv_svg_render_obj, %struct._lv_array_t }
%struct._lv_vector_dsc_t = type { ptr, %struct._lv_vector_draw_dsc_t, %struct._lv_draw_vector_task_dsc_t }
%struct._lv_draw_vector_task_dsc_t = type { %struct.lv_draw_dsc_base_t, ptr }

; Function Attrs: nounwind uwtable
define internal void @_restore_matrix(ptr noundef %0, ptr noundef %1) #0 {
  %3 = alloca ptr, align 8
  %4 = alloca ptr, align 8
  store ptr %0, ptr %3, align 8, !tbaa !3
  store ptr %1, ptr %4, align 8, !tbaa !3
  %5 = load ptr, ptr %4, align 8, !tbaa !3
  %6 = getelementptr inbounds nuw %struct._lv_vector_dsc_t, ptr %5, i32 0, i32 1
  %7 = getelementptr inbounds nuw %struct._lv_vector_draw_dsc_t, ptr %6, i32 0, i32 2
  %8 = load ptr, ptr %3, align 8, !tbaa !3
  %9 = call ptr @lv_memcpy(ptr noundef %7, ptr noundef %8, i64 noundef 36)
  ret void
}

; Function Attrs: nounwind uwtable
define internal void @_copy_draw_dsc(ptr noundef %0, ptr noundef %1) #0 {
  %3 = alloca ptr, align 8
  %4 = alloca ptr, align 8
  store ptr %0, ptr %3, align 8, !tbaa !3
  store ptr %1, ptr %4, align 8, !tbaa !3
  %5 = load ptr, ptr %3, align 8, !tbaa !3
  %6 = getelementptr inbounds nuw %struct._lv_vector_draw_dsc_t, ptr %5, i32 0, i32 0
  %7 = load ptr, ptr %4, align 8, !tbaa !3
  %8 = getelementptr inbounds nuw %struct._lv_vector_draw_dsc_t, ptr %7, i32 0, i32 0
  %9 = call ptr @lv_memcpy(ptr noundef %6, ptr noundef %8, i64 noundef 248)
  %10 = load ptr, ptr %4, align 8, !tbaa !3
  %11 = getelementptr inbounds nuw %struct._lv_vector_draw_dsc_t, ptr %10, i32 0, i32 1
  %12 = getelementptr inbounds nuw %struct._lv_vector_stroke_dsc_t, ptr %11, i32 0, i32 0
  %13 = load i32, ptr %12, align 8, !tbaa !237
  %14 = load ptr, ptr %3, align 8, !tbaa !3
  %15 = getelementptr inbounds nuw %struct._lv_vector_draw_dsc_t, ptr %14, i32 0, i32 1
  %16 = getelementptr inbounds nuw %struct._lv_vector_stroke_dsc_t, ptr %15, i32 0, i32 0
  store i32 %13, ptr %16, align 8, !tbaa !237
  %17 = load ptr, ptr %3, align 8, !tbaa !3
  %18 = getelementptr inbounds nuw %struct._lv_vector_draw_dsc_t, ptr %17, i32 0, i32 1
  %19 = getelementptr inbounds nuw %struct._lv_vector_stroke_dsc_t, ptr %18, i32 0, i32 1
  %20 = load ptr, ptr %4, align 8, !tbaa !3
  %21 = getelementptr inbounds nuw %struct._lv_vector_draw_dsc_t, ptr %20, i32 0, i32 1
  %22 = getelementptr inbounds nuw %struct._lv_vector_stroke_dsc_t, ptr %21, i32 0, i32 1
  call void @llvm.memcpy.p0.p0.i64(ptr align 4 %19, ptr align 4 %22, i64 4, i1 false), !tbaa.struct !78
  %23 = load ptr, ptr %4, align 8, !tbaa !3
  %24 = getelementptr inbounds nuw %struct._lv_vector_draw_dsc_t, ptr %23, i32 0, i32 1
  %25 = getelementptr inbounds nuw %struct._lv_vector_stroke_dsc_t, ptr %24, i32 0, i32 2
  %26 = load i8, ptr %25, align 8, !tbaa !238
  %27 = load ptr, ptr %3, align 8, !tbaa !3
  %28 = getelementptr inbounds nuw %struct._lv_vector_draw_dsc_t, ptr %27, i32 0, i32 1
  %29 = getelementptr inbounds nuw %struct._lv_vector_stroke_dsc_t, ptr %28, i32 0, i32 2
  store i8 %26, ptr %29, align 8, !tbaa !238
  %30 = load ptr, ptr %4, align 8, !tbaa !3
  %31 = getelementptr inbounds nuw %struct._lv_vector_draw_dsc_t, ptr %30, i32 0, i32 1
  %32 = getelementptr inbounds nuw %struct._lv_vector_stroke_dsc_t, ptr %31, i32 0, i32 3
  %33 = load float, ptr %32, align 4, !tbaa !265
  %34 = load ptr, ptr %3, align 8, !tbaa !3
  %35 = getelementptr inbounds nuw %struct._lv_vector_draw_dsc_t, ptr %34, i32 0, i32 1
  %36 = getelementptr inbounds nuw %struct._lv_vector_stroke_dsc_t, ptr %35, i32 0, i32 3
  store float %33, ptr %36, align 4, !tbaa !265
  %37 = load ptr, ptr %4, align 8, !tbaa !3
  %38 = getelementptr inbounds nuw %struct._lv_vector_draw_dsc_t, ptr %37, i32 0, i32 1
  %39 = getelementptr inbounds nuw %struct._lv_vector_stroke_dsc_t, ptr %38, i32 0, i32 5
  %40 = load i32, ptr %39, align 8, !tbaa !266
  %41 = load ptr, ptr %3, align 8, !tbaa !3
  %42 = getelementptr inbounds nuw %struct._lv_vector_draw_dsc_t, ptr %41, i32 0, i32 1
  %43 = getelementptr inbounds nuw %struct._lv_vector_stroke_dsc_t, ptr %42, i32 0, i32 5
  store i32 %40, ptr %43, align 8, !tbaa !266
  %44 = load ptr, ptr %4, align 8, !tbaa !3
  %45 = getelementptr inbounds nuw %struct._lv_vector_draw_dsc_t, ptr %44, i32 0, i32 1
  %46 = getelementptr inbounds nuw %struct._lv_vector_stroke_dsc_t, ptr %45, i32 0, i32 6
  %47 = load i32, ptr %46, align 4, !tbaa !267
  %48 = load ptr, ptr %3, align 8, !tbaa !3
  %49 = getelementptr inbounds nuw %struct._lv_vector_draw_dsc_t, ptr %48, i32 0, i32 1
  %50 = getelementptr inbounds nuw %struct._lv_vector_stroke_dsc_t, ptr %49, i32 0, i32 6
  store i32 %47, ptr %50, align 4, !tbaa !267
  %51 = load ptr, ptr %4, align 8, !tbaa !3
  %52 = getelementptr inbounds nuw %struct._lv_vector_draw_dsc_t, ptr %51, i32 0, i32 1
  %53 = getelementptr inbounds nuw %struct._lv_vector_stroke_dsc_t, ptr %52, i32 0, i32 7
  %54 = load i16, ptr %53, align 8, !tbaa !268
  %55 = load ptr, ptr %3, align 8, !tbaa !3
  %56 = getelementptr inbounds nuw %struct._lv_vector_draw_dsc_t, ptr %55, i32 0, i32 1
  %57 = getelementptr inbounds nuw %struct._lv_vector_stroke_dsc_t, ptr %56, i32 0, i32 7
  store i16 %54, ptr %57, align 8, !tbaa !268
  %58 = load ptr, ptr %3, align 8, !tbaa !3
  %59 = getelementptr inbounds nuw %struct._lv_vector_draw_dsc_t, ptr %58, i32 0, i32 1
  %60 = getelementptr inbounds nuw %struct._lv_vector_stroke_dsc_t, ptr %59, i32 0, i32 4
  %61 = load ptr, ptr %4, align 8, !tbaa !3
  %62 = getelementptr inbounds nuw %struct._lv_vector_draw_dsc_t, ptr %61, i32 0, i32 1
  %63 = getelementptr inbounds nuw %struct._lv_vector_stroke_dsc_t, ptr %62, i32 0, i32 4
  call void @lv_array_copy(ptr noundef %60, ptr noundef %63)
  %64 = load ptr, ptr %3, align 8, !tbaa !3
  %65 = getelementptr inbounds nuw %struct._lv_vector_draw_dsc_t, ptr %64, i32 0, i32 1
  %66 = getelementptr inbounds nuw %struct._lv_vector_stroke_dsc_t, ptr %65, i32 0, i32 8
  %67 = load ptr, ptr %4, align 8, !tbaa !3
  %68 = getelementptr inbounds nuw %struct._lv_vector_draw_dsc_t, ptr %67, i32 0, i32 1
  %69 = getelementptr inbounds nuw %struct._lv_vector_stroke_dsc_t, ptr %68, i32 0, i32 8
  %70 = call ptr @lv_memcpy(ptr noundef %66, ptr noundef %69, i64 noundef 48)
  %71 = load ptr, ptr %3, align 8, !tbaa !3
  %72 = getelementptr inbounds nuw %struct._lv_vector_draw_dsc_t, ptr %71, i32 0, i32 1
  %73 = getelementptr inbounds nuw %struct._lv_vector_stroke_dsc_t, ptr %72, i32 0, i32 9
  %74 = load ptr, ptr %4, align 8, !tbaa !3
  %75 = getelementptr inbounds nuw %struct._lv_vector_draw_dsc_t, ptr %74, i32 0, i32 1
  %76 = getelementptr inbounds nuw %struct._lv_vector_stroke_dsc_t, ptr %75, i32 0, i32 9
  %77 = call ptr @lv_memcpy(ptr noundef %73, ptr noundef %76, i64 noundef 36)
  %78 = load ptr, ptr %4, align 8, !tbaa !3
  %79 = getelementptr inbounds nuw %struct._lv_vector_draw_dsc_t, ptr %78, i32 0, i32 3
  %80 = load i32, ptr %79, align 4, !tbaa !88
  %81 = load ptr, ptr %3, align 8, !tbaa !3
  %82 = getelementptr inbounds nuw %struct._lv_vector_draw_dsc_t, ptr %81, i32 0, i32 3
  store i32 %80, ptr %82, align 4, !tbaa !88
  ret void
}

; Function Attrs: inlinehint nounwind uwtable
define internal void @lv_memzero(ptr noundef %0, i64 noundef %1) #6 {
  %3 = alloca ptr, align 8
  %4 = alloca i64, align 8
  store ptr %0, ptr %3, align 8, !tbaa !3
  store i64 %1, ptr %4, align 8, !tbaa !191
  %5 = load ptr, ptr %3, align 8, !tbaa !3
  %6 = load i64, ptr %4, align 8, !tbaa !191
  call void @lv_memset(ptr noundef %5, i8 noundef zeroext 0, i64 noundef %6)
  ret void
}

; Function Attrs: nounwind uwtable
define internal void @_setup_matrix(ptr noundef %0, ptr noundef %1, ptr noundef %2) #0 {
  %4 = alloca ptr, align 8
  %5 = alloca ptr, align 8
  %6 = alloca ptr, align 8
  store ptr %0, ptr %4, align 8, !tbaa !3
  store ptr %1, ptr %5, align 8, !tbaa !3
  store ptr %2, ptr %6, align 8, !tbaa !3
  %7 = load ptr, ptr %4, align 8, !tbaa !3
  %8 = load ptr, ptr %5, align 8, !tbaa !3
  %9 = getelementptr inbounds nuw %struct._lv_vector_dsc_t, ptr %8, i32 0, i32 1
  %10 = getelementptr inbounds nuw %struct._lv_vector_draw_dsc_t, ptr %9, i32 0, i32 2
  %11 = call ptr @lv_memcpy(ptr noundef %7, ptr noundef %10, i64 noundef 36)
  %12 = load ptr, ptr %5, align 8, !tbaa !3
  %13 = getelementptr inbounds nuw %struct._lv_vector_dsc_t, ptr %12, i32 0, i32 1
  %14 = getelementptr inbounds nuw %struct._lv_vector_draw_dsc_t, ptr %13, i32 0, i32 2
  %15 = load ptr, ptr %6, align 8, !tbaa !3
  %16 = getelementptr inbounds nuw %struct._lv_svg_render_obj, ptr %15, i32 0, i32 4
  call void @lv_matrix_multiply(ptr noundef %14, ptr noundef %16)
  ret void
}

; Function Attrs: nounwind uwtable
define internal void @_render_group(ptr noundef %0, ptr noundef %1, ptr noundef %2) #0 {
  %4 = alloca ptr, align 8
  %5 = alloca ptr, align 8
  %6 = alloca ptr, align 8
  %7 = alloca ptr, align 8
  %8 = alloca %struct._lv_matrix_t, align 4
  %9 = alloca %struct._lv_svg_draw_dsc, align 8
  %10 = alloca i32, align 4
  %11 = alloca ptr, align 8
  store ptr %0, ptr %4, align 8, !tbaa !3
  store ptr %1, ptr %5, align 8, !tbaa !3
  store ptr %2, ptr %6, align 8, !tbaa !3
  call void @llvm.lifetime.start.p0(i64 8, ptr %7) #8
  %12 = load ptr, ptr %4, align 8, !tbaa !3
  store ptr %12, ptr %7, align 8, !tbaa !3
  call void @llvm.lifetime.start.p0(i64 36, ptr %8) #8
  %13 = load ptr, ptr %5, align 8, !tbaa !3
  %14 = load ptr, ptr %4, align 8, !tbaa !3
  call void @_setup_matrix(ptr noundef %8, ptr noundef %13, ptr noundef %14)
  call void @llvm.lifetime.start.p0(i64 464, ptr %9) #8
  call void @lv_memzero(ptr noundef %9, i64 noundef 464)
  call void @llvm.lifetime.start.p0(i64 4, ptr %10) #8
  store i32 0, ptr %10, align 4, !tbaa !8
  br label %15

15:                                               ; preds = %55, %3
  %16 = load i32, ptr %10, align 4, !tbaa !8
  %17 = load ptr, ptr %7, align 8, !tbaa !3
  %18 = getelementptr inbounds nuw %struct.lv_svg_render_group_t, ptr %17, i32 0, i32 1
  %19 = getelementptr inbounds nuw %struct._lv_array_t, ptr %18, i32 0, i32 1
  %20 = load i32, ptr %19, align 8, !tbaa !270
  %21 = icmp ult i32 %16, %20
  br i1 %21, label %23, label %22

22:                                               ; preds = %15
  call void @llvm.lifetime.end.p0(i64 4, ptr %10) #8
  br label %58

23:                                               ; preds = %15
  call void @llvm.lifetime.start.p0(i64 8, ptr %11) #8
  %24 = load ptr, ptr %7, align 8, !tbaa !3
  %25 = getelementptr inbounds nuw %struct.lv_svg_render_group_t, ptr %24, i32 0, i32 1
  %26 = load i32, ptr %10, align 4, !tbaa !8
  %27 = call ptr @lv_array_at(ptr noundef %25, i32 noundef %26)
  %28 = load ptr, ptr %27, align 8, !tbaa !3
  store ptr %28, ptr %11, align 8, !tbaa !3
  %29 = load ptr, ptr %11, align 8, !tbaa !3
  %30 = getelementptr inbounds nuw %struct._lv_svg_render_obj, ptr %29, i32 0, i32 10
  %31 = load ptr, ptr %30, align 8, !tbaa !75
  %32 = icmp ne ptr %31, null
  br i1 %32, label %33, label %54

33:                                               ; preds = %23
  %34 = load ptr, ptr %11, align 8, !tbaa !3
  %35 = getelementptr inbounds nuw %struct._lv_svg_render_obj, ptr %34, i32 0, i32 1
  %36 = load i32, ptr %35, align 8, !tbaa !36
  %37 = and i32 %36, 2
  %38 = icmp ne i32 %37, 0
  br i1 %38, label %39, label %54

39:                                               ; preds = %33
  %40 = getelementptr inbounds nuw %struct._lv_svg_draw_dsc, ptr %9, i32 0, i32 1
  %41 = load ptr, ptr %5, align 8, !tbaa !3
  %42 = getelementptr inbounds nuw %struct._lv_vector_dsc_t, ptr %41, i32 0, i32 1
  call void @_copy_draw_dsc(ptr noundef %40, ptr noundef %42)
  %43 = load ptr, ptr %11, align 8, !tbaa !3
  %44 = load ptr, ptr %5, align 8, !tbaa !3
  call void @_special_render(ptr noundef %43, ptr noundef %44)
  %45 = load ptr, ptr %11, align 8, !tbaa !3
  %46 = getelementptr inbounds nuw %struct._lv_svg_render_obj, ptr %45, i32 0, i32 10
  %47 = load ptr, ptr %46, align 8, !tbaa !75
  %48 = load ptr, ptr %11, align 8, !tbaa !3
  %49 = load ptr, ptr %5, align 8, !tbaa !3
  %50 = load ptr, ptr %6, align 8, !tbaa !3
  call void %47(ptr noundef %48, ptr noundef %49, ptr noundef %50)
  %51 = load ptr, ptr %5, align 8, !tbaa !3
  %52 = getelementptr inbounds nuw %struct._lv_vector_dsc_t, ptr %51, i32 0, i32 1
  %53 = getelementptr inbounds nuw %struct._lv_svg_draw_dsc, ptr %9, i32 0, i32 1
  call void @_copy_draw_dsc(ptr noundef %52, ptr noundef %53)
  br label %54

54:                                               ; preds = %39, %33, %23
  call void @llvm.lifetime.end.p0(i64 8, ptr %11) #8
  br label %55

55:                                               ; preds = %54
  %56 = load i32, ptr %10, align 4, !tbaa !8
  %57 = add i32 %56, 1
  store i32 %57, ptr %10, align 4, !tbaa !8
  br label %15, !llvm.loop !271

58:                                               ; preds = %22
  %59 = load ptr, ptr %5, align 8, !tbaa !3
  call void @_restore_matrix(ptr noundef %8, ptr noundef %59)
  call void @llvm.lifetime.end.p0(i64 464, ptr %9) #8
  call void @llvm.lifetime.end.p0(i64 36, ptr %8) #8
  call void @llvm.lifetime.end.p0(i64 8, ptr %7) #8
  ret void
}