; Function Attrs: nounwind uwtable
define internal void @_render_group(ptr noundef %0, ptr noundef %1, ptr noundef %2) #0 {
  %4 = alloca %struct._lv_matrix_t, align 4
  %5 = alloca %struct._lv_svg_draw_dsc, align 8
  call void @llvm.lifetime.start.p0(i64 36, ptr nonnull %4) #9
  %6 = getelementptr inbounds nuw i8, ptr %1, i64 392
  %7 = call ptr @lv_memcpy(ptr noundef nonnull %4, ptr noundef nonnull %6, i64 noundef 36) #9
  %8 = getelementptr inbounds nuw i8, ptr %0, i64 464
  call void @lv_matrix_multiply(ptr noundef nonnull %6, ptr noundef nonnull %8) #9
  call void @llvm.lifetime.start.p0(i64 464, ptr nonnull %5) #9
  call void @lv_memset(ptr noundef nonnull %5, i8 noundef zeroext 0, i64 noundef 464) #9
  %9 = getelementptr inbounds nuw i8, ptr %0, i64 584
  %10 = load i32, ptr %9, align 8, !tbaa !267
  %.not20 = icmp eq i32 %10, 0
  br i1 %.not20, label %._crit_edge, label %.lr.ph

.lr.ph:                                           ; preds = %3
  %11 = getelementptr inbounds nuw i8, ptr %0, i64 576
  %12 = getelementptr inbounds nuw i8, ptr %5, i64 8
  %13 = getelementptr inbounds nuw i8, ptr %1, i64 8
  %14 = getelementptr inbounds nuw i8, ptr %1, i64 256
  %15 = getelementptr inbounds nuw i8, ptr %5, i64 256
  %16 = getelementptr inbounds nuw i8, ptr %5, i64 260
  %17 = getelementptr inbounds nuw i8, ptr %1, i64 260
  %18 = getelementptr inbounds nuw i8, ptr %1, i64 264
  %19 = getelementptr inbounds nuw i8, ptr %5, i64 264
  %20 = getelementptr inbounds nuw i8, ptr %1, i64 268
  %21 = getelementptr inbounds nuw i8, ptr %5, i64 268
  %22 = getelementptr inbounds nuw i8, ptr %1, i64 296
  %23 = getelementptr inbounds nuw i8, ptr %5, i64 296
  %24 = getelementptr inbounds nuw i8, ptr %1, i64 300
  %25 = getelementptr inbounds nuw i8, ptr %5, i64 300
  %26 = getelementptr inbounds nuw i8, ptr %1, i64 304
  %27 = getelementptr inbounds nuw i8, ptr %5, i64 304
  %28 = getelementptr inbounds nuw i8, ptr %5, i64 272
  %29 = getelementptr inbounds nuw i8, ptr %1, i64 272
  %30 = getelementptr inbounds nuw i8, ptr %5, i64 308
  %31 = getelementptr inbounds nuw i8, ptr %1, i64 308
  %32 = getelementptr inbounds nuw i8, ptr %5, i64 356
  %33 = getelementptr inbounds nuw i8, ptr %1, i64 356
  %34 = getelementptr inbounds nuw i8, ptr %1, i64 428
  %35 = getelementptr inbounds nuw i8, ptr %5, i64 428
  br label %37

._crit_edge:                                      ; preds = %70, %3
  %36 = call ptr @lv_memcpy(ptr noundef nonnull %6, ptr noundef nonnull %4, i64 noundef 36) #9
  call void @llvm.lifetime.end.p0(i64 464, ptr nonnull %5) #9
  call void @llvm.lifetime.end.p0(i64 36, ptr nonnull %4) #9
  ret void

37:                                               ; preds = %.lr.ph, %70
  %.019 = phi i32 [ 0, %.lr.ph ], [ %71, %70 ]
  %38 = call ptr @lv_array_at(ptr noundef nonnull %11, i32 noundef %.019) #9
  %39 = load ptr, ptr %38, align 8, !tbaa !4
  %40 = getelementptr inbounds nuw i8, ptr %39, i64 544
  %41 = load ptr, ptr %40, align 8, !tbaa !154
  %.not = icmp eq ptr %41, null
  br i1 %.not, label %70, label %42

42:                                               ; preds = %37
  %43 = getelementptr inbounds nuw i8, ptr %39, i64 8
  %44 = load i32, ptr %43, align 8, !tbaa !133
  %45 = and i32 %44, 2
  %.not18 = icmp eq i32 %45, 0
  br i1 %.not18, label %70, label %46

46:                                               ; preds = %42
  %47 = call ptr @lv_memcpy(ptr noundef nonnull %12, ptr noundef nonnull %13, i64 noundef 248) #9
  %48 = load i32, ptr %14, align 8, !tbaa !140
  store i32 %48, ptr %15, align 8, !tbaa !140
  %49 = load i32, ptr %17, align 4
  store i32 %49, ptr %16, align 4
  %50 = load i8, ptr %18, align 8, !tbaa !141
  store i8 %50, ptr %19, align 8, !tbaa !141
  %51 = load float, ptr %20, align 4, !tbaa !142
  store float %51, ptr %21, align 4, !tbaa !142
  %52 = load i32, ptr %22, align 8, !tbaa !143
  store i32 %52, ptr %23, align 8, !tbaa !143
  %53 = load i32, ptr %24, align 4, !tbaa !144
  store i32 %53, ptr %25, align 4, !tbaa !144
  %54 = load i16, ptr %26, align 8, !tbaa !145
  store i16 %54, ptr %27, align 8, !tbaa !145
  call void @lv_array_copy(ptr noundef nonnull %28, ptr noundef nonnull %29) #9
  %55 = call ptr @lv_memcpy(ptr noundef nonnull %30, ptr noundef nonnull %31, i64 noundef 48) #9
  %56 = call ptr @lv_memcpy(ptr noundef nonnull %32, ptr noundef nonnull %33, i64 noundef 36) #9
  %57 = load i32, ptr %34, align 4, !tbaa !47
  store i32 %57, ptr %35, align 4, !tbaa !47
  call fastcc void @_special_render(ptr noundef nonnull %39, ptr noundef %1)
  %58 = load ptr, ptr %40, align 8, !tbaa !154
  call void %58(ptr noundef nonnull %39, ptr noundef %1, ptr noundef %2) #9
  %59 = call ptr @lv_memcpy(ptr noundef nonnull %13, ptr noundef nonnull %12, i64 noundef 248) #9
  %60 = load i32, ptr %15, align 8, !tbaa !140
  store i32 %60, ptr %14, align 8, !tbaa !140
  %61 = load i32, ptr %16, align 4
  store i32 %61, ptr %17, align 4
  %62 = load i8, ptr %19, align 8, !tbaa !141
  store i8 %62, ptr %18, align 8, !tbaa !141
  %63 = load float, ptr %21, align 4, !tbaa !142
  store float %63, ptr %20, align 4, !tbaa !142
  %64 = load i32, ptr %23, align 8, !tbaa !143
  store i32 %64, ptr %22, align 8, !tbaa !143
  %65 = load i32, ptr %25, align 4, !tbaa !144
  store i32 %65, ptr %24, align 4, !tbaa !144
  %66 = load i16, ptr %27, align 8, !tbaa !145
  store i16 %66, ptr %26, align 8, !tbaa !145
  call void @lv_array_copy(ptr noundef nonnull %29, ptr noundef nonnull %28) #9
  %67 = call ptr @lv_memcpy(ptr noundef nonnull %31, ptr noundef nonnull %30, i64 noundef 48) #9
  %68 = call ptr @lv_memcpy(ptr noundef nonnull %33, ptr noundef nonnull %32, i64 noundef 36) #9
  %69 = load i32, ptr %35, align 4, !tbaa !47
  store i32 %69, ptr %34, align 4, !tbaa !47
  br label %70

70:                                               ; preds = %46, %42, %37
  %71 = add nuw i32 %.019, 1
  %72 = load i32, ptr %9, align 8, !tbaa !267
  %73 = icmp ult i32 %71, %72
  br i1 %73, label %37, label %._crit_edge, !llvm.loop !268
}